(dp0
I0
S'empty'
p1
sI1
S'blink'
p2
sI2
S'blades_of_attack'
p3
sI3
S'broadsword'
p4
sI4
S'chainmail'
p5
sI5
S'claymore'
p6
sI6
S'helm_of_iron_will'
p7
sI7
S'javelin'
p8
sI8
S'mithril_hammer'
p9
sI9
S'platemail'
p10
sI10
S'quarterstaff'
p11
sI11
S'quelling_blade'
p12
sI12
S'ring_of_protection'
p13
sI13
S'gauntlets'
p14
sI14
S'slippers'
p15
sI15
S'mantle'
p16
sI16
S'branches'
p17
sI17
S'belt_of_strength'
p18
sI18
S'boots_of_elves'
p19
sI19
S'robe'
p20
sI20
S'circlet'
p21
sI21
S'ogre_axe'
p22
sI22
S'blade_of_alacrity'
p23
sI23
S'staff_of_wizardry'
p24
sI24
S'ultimate_orb'
p25
sI25
S'gloves'
p26
sI26
S'lifesteal'
p27
sI27
S'ring_of_regen'
p28
sI28
S'sobi_mask'
p29
sI29
S'boots'
p30
sI30
S'gem'
p31
sI31
S'cloak'
p32
sI32
S'talisman_of_evasion'
p33
sI33
S'cheese'
p34
sI34
S'magic_stick'
p35
sI35
S'recipe_magic_wand'
p36
sI36
S'magic_wand'
p37
sI37
S'ghost'
p38
sI38
S'clarity'
p39
sI39
S'flask'
p40
sI40
S'dust'
p41
sI41
S'bottle'
p42
sI42
S'ward_observer'
p43
sI43
S'ward_sentry'
p44
sI44
S'tango'
p45
sI45
S'courier'
p46
sI46
S'tpscroll'
p47
sI47
S'recipe_travel_boots'
p48
sI48
S'travel_boots'
p49
sI49
S'recipe_phase_boots'
p50
sI50
S'phase_boots'
p51
sI51
S'demon_edge'
p52
sI52
S'eagle'
p53
sI53
S'reaver'
p54
sI54
S'relic'
p55
sI55
S'hyperstone'
p56
sI56
S'ring_of_health'
p57
sI57
S'void_stone'
p58
sI58
S'mystic_staff'
p59
sI59
S'energy_booster'
p60
sI60
S'point_booster'
p61
sI61
S'vitality_booster'
p62
sI62
S'recipe_power_treads'
p63
sI63
S'power_treads'
p64
sI64
S'recipe_hand_of_midas'
p65
sI65
S'hand_of_midas'
p66
sI66
S'recipe_oblivion_staff'
p67
sI67
S'oblivion_staff'
p68
sI68
S'recipe_pers'
p69
sI69
S'pers'
p70
sI70
S'recipe_poor_mans_shield'
p71
sI71
S'poor_mans_shield'
p72
sI72
S'recipe_bracer'
p73
sI73
S'bracer'
p74
sI74
S'recipe_wraith_band'
p75
sI75
S'wraith_band'
p76
sI76
S'recipe_null_talisman'
p77
sI77
S'null_talisman'
p78
sI78
S'recipe_mekansm'
p79
sI79
S'mekansm'
p80
sI80
S'recipe_vladmir'
p81
sI81
S'vladmir'
p82
sI84
S'flying_courier'
p83
sI85
S'recipe_buckler'
p84
sI86
S'buckler'
p85
sI87
S'recipe_ring_of_basilius'
p86
sI88
S'ring_of_basilius'
p87
sI89
S'recipe_pipe'
p88
sI90
S'pipe'
p89
sI91
S'recipe_urn_of_shadows'
p90
sI92
S'urn_of_shadows'
p91
sI93
S'recipe_headdress'
p92
sI94
S'headdress'
p93
sI95
S'recipe_sheepstick'
p94
sI96
S'sheepstick'
p95
sI97
S'recipe_orchid'
p96
sI98
S'orchid'
p97
sI99
S'recipe_cyclone'
p98
sI100
S'cyclone'
p99
sI101
S'recipe_force_staff'
p100
sI102
S'force_staff'
p101
sI103
S'recipe_dagon'
p102
sI104
S'dagon'
p103
sI105
S'recipe_necronomicon'
p104
sI106
S'necronomicon'
p105
sI107
S'recipe_ultimate_scepter'
p106
sI108
S'ultimate_scepter'
p107
sI109
S'recipe_refresher'
p108
sI110
S'refresher'
p109
sI111
S'recipe_assault'
p110
sI112
S'assault'
p111
sI113
S'recipe_heart'
p112
sI114
S'heart'
p113
sI115
S'recipe_black_king_bar'
p114
sI116
S'black_king_bar'
p115
sI117
S'aegis'
p116
sI118
S'recipe_shivas_guard'
p117
sI119
S'shivas_guard'
p118
sI120
S'recipe_bloodstone'
p119
sI121
S'bloodstone'
p120
sI122
S'recipe_sphere'
p121
sI123
S'sphere'
p122
sI124
S'recipe_vanguard'
p123
sI125
S'vanguard'
p124
sI126
S'recipe_blade_mail'
p125
sI127
S'blade_mail'
p126
sI128
S'recipe_soul_booster'
p127
sI129
S'soul_booster'
p128
sI130
S'recipe_hood_of_defiance'
p129
sI131
S'hood_of_defiance'
p130
sI132
S'recipe_rapier'
p131
sI133
S'rapier'
p132
sI134
S'recipe_monkey_king_bar'
p133
sI135
S'monkey_king_bar'
p134
sI136
S'recipe_radiance'
p135
sI137
S'radiance'
p136
sI138
S'recipe_butterfly'
p137
sI139
S'butterfly'
p138
sI140
S'recipe_greater_crit'
p139
sI141
S'greater_crit'
p140
sI142
S'recipe_basher'
p141
sI143
S'basher'
p142
sI144
S'recipe_bfury'
p143
sI145
S'bfury'
p144
sI146
S'recipe_manta'
p145
sI147
S'manta'
p146
sI148
S'recipe_lesser_crit'
p147
sI149
S'lesser_crit'
p148
sI150
S'recipe_armlet'
p149
sI151
S'armlet'
p150
sI152
S'invis_sword'
p151
sI153
S'recipe_sange_and_yasha'
p152
sI154
S'sange_and_yasha'
p153
sI155
S'recipe_satanic'
p154
sI156
S'satanic'
p155
sI157
S'recipe_mjollnir'
p156
sI158
S'mjollnir'
p157
sI159
S'recipe_skadi'
p158
sI160
S'skadi'
p159
sI161
S'recipe_sange'
p160
sI162
S'sange'
p161
sI163
S'recipe_helm_of_the_dominator'
p162
sI164
S'helm_of_the_dominator'
p163
sI165
S'recipe_maelstrom'
p164
sI166
S'maelstrom'
p165
sI167
S'recipe_desolator'
p166
sI168
S'desolator'
p167
sI169
S'recipe_yasha'
p168
sI170
S'yasha'
p169
sI171
S'recipe_mask_of_madness'
p170
sI172
S'mask_of_madness'
p171
sI173
S'recipe_diffusal_blade'
p172
sI174
S'diffusal_blade'
p173
sI175
S'recipe_ethereal_blade'
p174
sI176
S'ethereal_blade'
p175
sI177
S'recipe_soul_ring'
p176
sI178
S'soul_ring'
p177
sI179
S'recipe_arcane_boots'
p178
sI180
S'arcane_boots'
p179
sI181
S'orb_of_venom'
p180
sI182
S'stout_shield'
p181
sI183
S'recipe_invis_sword'
p182
sI184
S'recipe_ancient_janggo'
p183
sI185
S'ancient_janggo'
p184
sI186
S'recipe_medallion_of_courage'
p185
sI187
S'medallion_of_courage'
p186
sI188
S'smoke_of_deceit'
p187
sI189
S'recipe_veil_of_discord'
p188
sI190
S'veil_of_discord'
p189
sI191
S'recipe_necronomicon_2'
p190
sI192
S'recipe_necronomicon_3'
p191
sI193
S'necronomicon_2'
p192
sI194
S'necronomicon_3'
p193
sI195
S'recipe_diffusal_blade_2'
p194
sI196
S'diffusal_blade_2'
p195
sI197
S'recipe_dagon_2'
p196
sI198
S'recipe_dagon_3'
p197
sI199
S'recipe_dagon_4'
p198
sI200
S'recipe_dagon_5'
p199
sI201
S'dagon_2'
p200
sI202
S'dagon_3'
p201
sI203
S'dagon_4'
p202
sI204
S'dagon_5'
p203
sI205
S'recipe_rod_of_atos'
p204
sI206
S'rod_of_atos'
p205
sI207
S'recipe_abyssal_blade'
p206
sI208
S'abyssal_blade'
p207
sI209
S'recipe_heavens_halberd'
p208
sI210
S'heavens_halberd'
p209
sI211
S'recipe_ring_of_aquila'
p210
sI212
S'ring_of_aquila'
p211
sI213
S'recipe_tranquil_boots'
p212
sI214
S'tranquil_boots'
p213
sI215
S'shadow_amulet'
p214
sI216
S'enchanted_mango'
p215
sI218
S'ward_dispenser'
p216
sI220
S'travel_boots_2'
p217
sI226
S'lotus_orb'
p218
sI229
S'solar_crest'
p219
sI231
S'guardian_greaves'
p220
sI232
S'aether_lens'
p221
sI233
S'recipe_aether_lens'
p222
sI234
S'recipe_dragon_lance'
p223
sI235
S'octarine_core'
p224
sI236
S'dragon_lance'
p225
sI237
S'faerie_fire'
p226
sI238
S'recipe_iron_talon'
p227
sI239
S'iron_talon'
p228
sI240
S'blight_stone'
p229
sI241
S'tango_single'
p230
sI242
S'crimson_guard'
p231
sI244
S'wind_lace'
p232
sI245
S'recipe_bloodthorn'
p233
sI247
S'moon_shard'
p234
sI249
S'silver_edge'
p235
sI250
S'bloodthorn'
p236
sI251
S'recipe_echo_sabre'
p237
sI252
S'echo_sabre'
p238
sI254
S'glimmer_cape'
p239
sI257
S'tome_of_knowledge'
p240
sI262
S'recipe_hurricane_pike'
p241
sI263
S'hurricane_pike'
p242
sI265
S'infused_raindrop'
p243
sI1000
S'halloween_candy_corn'
p244
sI1001
S'mystery_hook'
p245
sI1002
S'mystery_arrow'
p246
sI1003
S'mystery_missile'
p247
sI1004
S'mystery_toss'
p248
sI1005
S'mystery_vacuum'
p249
sI1006
S'halloween_rapier'
p250
sI1007
S'greevil_whistle'
p251
sI1008
S'greevil_whistle_toggle'
p252
sI1009
S'present'
p253
sI1010
S'winter_stocking'
p254
sI1011
S'winter_skates'
p255
sI1012
S'winter_cake'
p256
sI1013
S'winter_cookie'
p257
sI1014
S'winter_coco'
p258
sI1015
S'winter_ham'
p259
sI1016
S'winter_kringle'
p260
sI1017
S'winter_mushroom'
p261
sI1018
S'winter_greevil_treat'
p262
sI1019
S'winter_greevil_garbage'
p263
sI1020
S'winter_greevil_chewy'
p264
s.